target datalayout = "e-m:e-p270:32:32-p271:32:32-p272:64:64-i64:64-i128:128-f80:128-n8:16:32:64-S128"
target triple = "x86_64-pc-linux-gnu"

%"class.std::unique_ptr" = type { %"struct.std::__uniq_ptr_data" }
%"struct.std::__uniq_ptr_data" = type { %"class.std::__uniq_ptr_impl" }
%"class.std::__uniq_ptr_impl" = type { %"class.std::tuple" }
%"class.std::tuple" = type { %"struct.std::_Tuple_impl" }
%"struct.std::_Tuple_impl" = type { %"struct.std::_Head_base.7" }
%"struct.std::_Head_base.7" = type { ptr }
%"class.std::__cxx11::basic_string" = type { %"struct.std::__cxx11::basic_string<char>::_Alloc_hider", i64, %union.anon }
%"struct.std::__cxx11::basic_string<char>::_Alloc_hider" = type { ptr }
%union.anon = type { i64, [8 x i8] }
%class.cmSourceGroup = type { %"class.std::__cxx11::basic_string", %"class.std::__cxx11::basic_string", %"class.cmsys::RegularExpression", %"class.std::set", %"class.std::vector", %"class.std::unique_ptr" }
%"class.cmsys::RegularExpression" = type { %"class.cmsys::RegularExpressionMatch", i8, i8, ptr, i64, ptr, i32, i32 }
%"class.cmsys::RegularExpressionMatch" = type { [32 x ptr], [32 x ptr], ptr }
%"class.std::set" = type { %"class.std::_Rb_tree" }
%"class.std::_Rb_tree" = type { %"struct.std::_Rb_tree<std::__cxx11::basic_string<char>, std::__cxx11::basic_string<char>, std::_Identity<std::__cxx11::basic_string<char>>, std::less<std::__cxx11::basic_string<char>>>::_Rb_tree_impl" }
%"struct.std::_Rb_tree<std::__cxx11::basic_string<char>, std::__cxx11::basic_string<char>, std::_Identity<std::__cxx11::basic_string<char>>, std::less<std::__cxx11::basic_string<char>>>::_Rb_tree_impl" = type { [8 x i8], %"struct.std::_Rb_tree_header" }
%"struct.std::_Rb_tree_header" = type { %"struct.std::_Rb_tree_node_base", i64 }
%"struct.std::_Rb_tree_node_base" = type { i32, ptr, ptr, ptr }
%"class.std::vector" = type { %"struct.std::_Vector_base" }
%"struct.std::_Vector_base" = type { %"struct.std::_Vector_base<const cmSourceFile *, std::allocator<const cmSourceFile *>>::_Vector_impl" }
%"struct.std::_Vector_base<const cmSourceFile *, std::allocator<const cmSourceFile *>>::_Vector_impl" = type { %"struct.std::_Vector_base<const cmSourceFile *, std::allocator<const cmSourceFile *>>::_Vector_impl_data" }
%"struct.std::_Vector_base<const cmSourceFile *, std::allocator<const cmSourceFile *>>::_Vector_impl_data" = type { ptr, ptr, ptr }
%class.cmSourceGroupInternals = type { %"class.std::vector.8" }
%"class.std::vector.8" = type { %"struct.std::_Vector_base.9" }
%"struct.std::_Vector_base.9" = type { %"struct.std::_Vector_base<cmSourceGroup, std::allocator<cmSourceGroup>>::_Vector_impl" }
%"struct.std::_Vector_base<cmSourceGroup, std::allocator<cmSourceGroup>>::_Vector_impl" = type { %"struct.std::_Vector_base<cmSourceGroup, std::allocator<cmSourceGroup>>::_Vector_impl_data" }
%"struct.std::_Vector_base<cmSourceGroup, std::allocator<cmSourceGroup>>::_Vector_impl_data" = type { ptr, ptr, ptr }
%"class.__gnu_cxx::__normal_iterator" = type { ptr }

; Function Attrs: mustprogress nounwind uwtable
define linkonce_odr dso_local noundef nonnull align 8 dereferenceable(8) ptr @_ZNSt10_Head_baseILm0EP22cmSourceGroupInternalsLb0EE7_M_headERKS2_(ptr noundef nonnull align 8 dereferenceable(8) %0) #1 comdat align 2 {
  %2 = alloca ptr, align 8
  store ptr %0, ptr %2, align 8, !tbaa !109
  %3 = load ptr, ptr %2, align 8, !tbaa !109
  %4 = getelementptr inbounds nuw %"struct.std::_Head_base.7", ptr %3, i32 0, i32 0
  ret ptr %4
}

; Function Attrs: mustprogress nounwind uwtable
define linkonce_odr dso_local noundef nonnull align 8 dereferenceable(8) ptr @_ZNSt11_Tuple_implILm0EJP22cmSourceGroupInternalsSt14default_deleteIS0_EEE7_M_headERKS4_(ptr noundef nonnull align 8 dereferenceable(8) %0) #1 comdat align 2 {
  %2 = alloca ptr, align 8
  store ptr %0, ptr %2, align 8, !tbaa !105
  %3 = load ptr, ptr %2, align 8, !tbaa !105
  %4 = call noundef nonnull align 8 dereferenceable(8) ptr @_ZNSt10_Head_baseILm0EP22cmSourceGroupInternalsLb0EE7_M_headERKS2_(ptr noundef nonnull align 8 dereferenceable(8) %3) #16
  ret ptr %4
}

; Function Attrs: mustprogress nounwind uwtable
define linkonce_odr dso_local noundef nonnull align 8 dereferenceable(8) ptr @_ZSt12__get_helperILm0EP22cmSourceGroupInternalsJSt14default_deleteIS0_EEERKT0_RKSt11_Tuple_implIXT_EJS4_DpT1_EE(ptr noundef nonnull align 8 dereferenceable(8) %0) #1 comdat {
  %2 = alloca ptr, align 8
  store ptr %0, ptr %2, align 8, !tbaa !105
  %3 = load ptr, ptr %2, align 8, !tbaa !105
  %4 = call noundef nonnull align 8 dereferenceable(8) ptr @_ZNSt11_Tuple_implILm0EJP22cmSourceGroupInternalsSt14default_deleteIS0_EEE7_M_headERKS4_(ptr noundef nonnull align 8 dereferenceable(8) %3) #16
  ret ptr %4
}

; Function Attrs: mustprogress nounwind uwtable
define linkonce_odr dso_local noundef nonnull align 8 dereferenceable(8) ptr @_ZSt3getILm0EJP22cmSourceGroupInternalsSt14default_deleteIS0_EEERKNSt13tuple_elementIXT_ESt5tupleIJDpT0_EEE4typeERKS8_(ptr noundef nonnull align 8 dereferenceable(8) %0) #1 comdat {
  %2 = alloca ptr, align 8
  store ptr %0, ptr %2, align 8, !tbaa !103
  %3 = load ptr, ptr %2, align 8, !tbaa !103
  %4 = call noundef nonnull align 8 dereferenceable(8) ptr @_ZSt12__get_helperILm0EP22cmSourceGroupInternalsJSt14default_deleteIS0_EEERKT0_RKSt11_Tuple_implIXT_EJS4_DpT1_EE(ptr noundef nonnull align 8 dereferenceable(8) %3) #16
  ret ptr %4
}

; Function Attrs: mustprogress nounwind uwtable
define available_externally noundef ptr @_ZNKSt7__cxx1112basic_stringIcSt11char_traitsIcESaIcEE7_M_dataEv(ptr noundef nonnull align 8 dereferenceable(32) %0) #1 align 2 {
  %2 = alloca ptr, align 8
  store ptr %0, ptr %2, align 8, !tbaa !9
  %3 = load ptr, ptr %2, align 8
  %4 = getelementptr inbounds nuw %"class.std::__cxx11::basic_string", ptr %3, i32 0, i32 0
  %5 = getelementptr inbounds nuw %"struct.std::__cxx11::basic_string<char>::_Alloc_hider", ptr %4, i32 0, i32 0
  %6 = load ptr, ptr %5, align 8, !tbaa !152
  ret ptr %6
}

; Function Attrs: mustprogress nounwind uwtable
define linkonce_odr dso_local noundef ptr @_ZNKSt15__uniq_ptr_implI22cmSourceGroupInternalsSt14default_deleteIS0_EE6_M_ptrEv(ptr noundef nonnull align 8 dereferenceable(8) %0) #1 comdat align 2 {
  %2 = alloca ptr, align 8
  store ptr %0, ptr %2, align 8, !tbaa !101
  %3 = load ptr, ptr %2, align 8
  %4 = getelementptr inbounds nuw %"class.std::__uniq_ptr_impl", ptr %3, i32 0, i32 0
  %5 = call noundef nonnull align 8 dereferenceable(8) ptr @_ZSt3getILm0EJP22cmSourceGroupInternalsSt14default_deleteIS0_EEERKNSt13tuple_elementIXT_ESt5tupleIJDpT0_EEE4typeERKS8_(ptr noundef nonnull align 8 dereferenceable(8) %4) #16
  %6 = load ptr, ptr %5, align 8, !tbaa !34
  ret ptr %6
}

; Function Attrs: mustprogress nounwind uwtable
define linkonce_odr dso_local noundef i32 @_ZNSt11char_traitsIcE7compareEPKcS2_m(ptr noundef %0, ptr noundef %1, i64 noundef %2) #1 comdat align 2 {
  %4 = alloca i32, align 4
  %5 = alloca ptr, align 8
  %6 = alloca ptr, align 8
  %7 = alloca i64, align 8
  store ptr %0, ptr %5, align 8, !tbaa !11
  store ptr %1, ptr %6, align 8, !tbaa !11
  store i64 %2, ptr %7, align 8, !tbaa !42
  %8 = load i64, ptr %7, align 8, !tbaa !42
  %9 = icmp eq i64 %8, 0
  br i1 %9, label %10, label %11

10:                                               ; preds = %3
  store i32 0, ptr %4, align 4
  br label %16

11:                                               ; preds = %3
  %12 = load ptr, ptr %5, align 8, !tbaa !11
  %13 = load ptr, ptr %6, align 8, !tbaa !11
  %14 = load i64, ptr %7, align 8, !tbaa !42
  %15 = call i32 @memcmp(ptr noundef %12, ptr noundef %13, i64 noundef %14) #16
  store i32 %15, ptr %4, align 4
  br label %16

16:                                               ; preds = %11, %10
  %17 = load i32, ptr %4, align 4
  ret i32 %17
}

; Function Attrs: mustprogress nounwind uwtable
define available_externally noundef ptr @_ZNKSt7__cxx1112basic_stringIcSt11char_traitsIcESaIcEE4dataEv(ptr noundef nonnull align 8 dereferenceable(32) %0) #1 align 2 {
  %2 = alloca ptr, align 8
  store ptr %0, ptr %2, align 8, !tbaa !9
  %3 = load ptr, ptr %2, align 8
  %4 = call noundef ptr @_ZNKSt7__cxx1112basic_stringIcSt11char_traitsIcESaIcEE7_M_dataEv(ptr noundef nonnull align 8 dereferenceable(32) %3)
  ret ptr %4
}

; Function Attrs: mustprogress nounwind uwtable
define available_externally noundef i64 @_ZNKSt7__cxx1112basic_stringIcSt11char_traitsIcESaIcEE4sizeEv(ptr noundef nonnull align 8 dereferenceable(32) %0) #1 align 2 {
  %2 = alloca ptr, align 8
  store ptr %0, ptr %2, align 8, !tbaa !9
  %3 = load ptr, ptr %2, align 8
  %4 = getelementptr inbounds nuw %"class.std::__cxx11::basic_string", ptr %3, i32 0, i32 1
  %5 = load i64, ptr %4, align 8, !tbaa !154
  ret i64 %5
}

; Function Attrs: mustprogress nounwind uwtable
define linkonce_odr dso_local noundef nonnull align 8 dereferenceable(8) ptr @_ZNK9__gnu_cxx17__normal_iteratorIP13cmSourceGroupSt6vectorIS1_SaIS1_EEE4baseEv(ptr noundef nonnull align 8 dereferenceable(8) %0) #1 comdat align 2 {
  %2 = alloca ptr, align 8
  store ptr %0, ptr %2, align 8, !tbaa !62
  %3 = load ptr, ptr %2, align 8
  %4 = getelementptr inbounds nuw %"class.__gnu_cxx::__normal_iterator", ptr %3, i32 0, i32 0
  ret ptr %4
}

; Function Attrs: mustprogress nounwind uwtable
define linkonce_odr dso_local void @_ZN9__gnu_cxx17__normal_iteratorIP13cmSourceGroupSt6vectorIS1_SaIS1_EEEC2ERKS2_(ptr noundef nonnull align 8 dereferenceable(8) %0, ptr noundef nonnull align 8 dereferenceable(8) %1) unnamed_addr #1 comdat align 2 {
  %3 = alloca ptr, align 8
  %4 = alloca ptr, align 8
  store ptr %0, ptr %3, align 8, !tbaa !62
  store ptr %1, ptr %4, align 8, !tbaa !170
  %5 = load ptr, ptr %3, align 8
  %6 = getelementptr inbounds nuw %"class.__gnu_cxx::__normal_iterator", ptr %5, i32 0, i32 0
  %7 = load ptr, ptr %4, align 8, !tbaa !170
  %8 = load ptr, ptr %7, align 8, !tbaa !4
  store ptr %8, ptr %6, align 8, !tbaa !64
  ret void
}

; Function Attrs: mustprogress nounwind uwtable
define linkonce_odr dso_local noundef ptr @_ZNKSt10unique_ptrI22cmSourceGroupInternalsSt14default_deleteIS0_EE3getEv(ptr noundef nonnull align 8 dereferenceable(8) %0) #1 comdat align 2 {
  %2 = alloca ptr, align 8
  store ptr %0, ptr %2, align 8, !tbaa !30
  %3 = load ptr, ptr %2, align 8
  %4 = getelementptr inbounds nuw %"class.std::unique_ptr", ptr %3, i32 0, i32 0
  %5 = call noundef ptr @_ZNKSt15__uniq_ptr_implI22cmSourceGroupInternalsSt14default_deleteIS0_EE6_M_ptrEv(ptr noundef nonnull align 8 dereferenceable(8) %4) #16
  ret ptr %5
}

; Function Attrs: mustprogress nounwind uwtable
define linkonce_odr dso_local noundef nonnull align 8 dereferenceable(8) ptr @_ZN9__gnu_cxx17__normal_iteratorIP13cmSourceGroupSt6vectorIS1_SaIS1_EEEppEv(ptr noundef nonnull align 8 dereferenceable(8) %0) #1 comdat align 2 {
  %2 = alloca ptr, align 8
  store ptr %0, ptr %2, align 8, !tbaa !62
  %3 = load ptr, ptr %2, align 8
  %4 = getelementptr inbounds nuw %"class.__gnu_cxx::__normal_iterator", ptr %3, i32 0, i32 0
  %5 = load ptr, ptr %4, align 8, !tbaa !64
  %6 = getelementptr inbounds nuw %class.cmSourceGroup, ptr %5, i32 1
  store ptr %6, ptr %4, align 8, !tbaa !64
  ret ptr %3
}

; Function Attrs: inlinehint mustprogress nounwind uwtable
define linkonce_odr dso_local noundef zeroext i1 @_ZSteqIcEN9__gnu_cxx11__enable_ifIXsr9__is_charIT_EE7__valueEbE6__typeERKNSt7__cxx1112basic_stringIS2_St11char_traitsIS2_ESaIS2_EEESC_(ptr noundef nonnull align 8 dereferenceable(32) %0, ptr noundef nonnull align 8 dereferenceable(32) %1) #4 comdat {
  %3 = alloca ptr, align 8
  %4 = alloca ptr, align 8
  store ptr %0, ptr %3, align 8, !tbaa !9
  store ptr %1, ptr %4, align 8, !tbaa !9
  %5 = load ptr, ptr %3, align 8, !tbaa !9
  %6 = call noundef i64 @_ZNKSt7__cxx1112basic_stringIcSt11char_traitsIcESaIcEE4sizeEv(ptr noundef nonnull align 8 dereferenceable(32) %5) #16
  %7 = load ptr, ptr %4, align 8, !tbaa !9
  %8 = call noundef i64 @_ZNKSt7__cxx1112basic_stringIcSt11char_traitsIcESaIcEE4sizeEv(ptr noundef nonnull align 8 dereferenceable(32) %7) #16
  %9 = icmp eq i64 %6, %8
  br i1 %9, label %10, label %20

10:                                               ; preds = %2
  %11 = load ptr, ptr %3, align 8, !tbaa !9
  %12 = call noundef ptr @_ZNKSt7__cxx1112basic_stringIcSt11char_traitsIcESaIcEE4dataEv(ptr noundef nonnull align 8 dereferenceable(32) %11) #16
  %13 = load ptr, ptr %4, align 8, !tbaa !9
  %14 = call noundef ptr @_ZNKSt7__cxx1112basic_stringIcSt11char_traitsIcESaIcEE4dataEv(ptr noundef nonnull align 8 dereferenceable(32) %13) #16
  %15 = load ptr, ptr %3, align 8, !tbaa !9
  %16 = call noundef i64 @_ZNKSt7__cxx1112basic_stringIcSt11char_traitsIcESaIcEE4sizeEv(ptr noundef nonnull align 8 dereferenceable(32) %15) #16
  %17 = call noundef i32 @_ZNSt11char_traitsIcE7compareEPKcS2_m(ptr noundef %12, ptr noundef %14, i64 noundef %16)
  %18 = icmp ne i32 %17, 0
  %19 = xor i1 %18, true
  br label %20

20:                                               ; preds = %10, %2
  %21 = phi i1 [ false, %2 ], [ %19, %10 ]
  ret i1 %21
}

; Function Attrs: mustprogress nounwind uwtable
define dso_local noundef nonnull align 8 dereferenceable(32) ptr @_ZNK13cmSourceGroup7GetNameB5cxx11Ev(ptr noundef nonnull align 8 dereferenceable(704) %0) #1 align 2 {
  %2 = alloca ptr, align 8
  store ptr %0, ptr %2, align 8, !tbaa !4
  %3 = load ptr, ptr %2, align 8
  %4 = getelementptr inbounds nuw %class.cmSourceGroup, ptr %3, i32 0, i32 0
  ret ptr %4
}

; Function Attrs: mustprogress nounwind uwtable
define linkonce_odr dso_local noundef nonnull align 8 dereferenceable(704) ptr @_ZNK9__gnu_cxx17__normal_iteratorIP13cmSourceGroupSt6vectorIS1_SaIS1_EEEdeEv(ptr noundef nonnull align 8 dereferenceable(8) %0) #1 comdat align 2 {
  %2 = alloca ptr, align 8
  store ptr %0, ptr %2, align 8, !tbaa !62
  %3 = load ptr, ptr %2, align 8
  %4 = getelementptr inbounds nuw %"class.__gnu_cxx::__normal_iterator", ptr %3, i32 0, i32 0
  %5 = load ptr, ptr %4, align 8, !tbaa !64
  ret ptr %5
}

; Function Attrs: inlinehint mustprogress nounwind uwtable
define linkonce_odr dso_local noundef zeroext i1 @_ZN9__gnu_cxxneIP13cmSourceGroupSt6vectorIS1_SaIS1_EEEEbRKNS_17__normal_iteratorIT_T0_EESB_(ptr noundef nonnull align 8 dereferenceable(8) %0, ptr noundef nonnull align 8 dereferenceable(8) %1) #4 comdat {
  %3 = alloca ptr, align 8
  %4 = alloca ptr, align 8
  store ptr %0, ptr %3, align 8, !tbaa !62
  store ptr %1, ptr %4, align 8, !tbaa !62
  %5 = load ptr, ptr %3, align 8, !tbaa !62
  %6 = call noundef nonnull align 8 dereferenceable(8) ptr @_ZNK9__gnu_cxx17__normal_iteratorIP13cmSourceGroupSt6vectorIS1_SaIS1_EEE4baseEv(ptr noundef nonnull align 8 dereferenceable(8) %5) #16
  %7 = load ptr, ptr %6, align 8, !tbaa !4
  %8 = load ptr, ptr %4, align 8, !tbaa !62
  %9 = call noundef nonnull align 8 dereferenceable(8) ptr @_ZNK9__gnu_cxx17__normal_iteratorIP13cmSourceGroupSt6vectorIS1_SaIS1_EEE4baseEv(ptr noundef nonnull align 8 dereferenceable(8) %8) #16
  %10 = load ptr, ptr %9, align 8, !tbaa !4
  %11 = icmp ne ptr %7, %10
  ret i1 %11
}

; Function Attrs: mustprogress nounwind uwtable
define linkonce_odr dso_local ptr @_ZNSt6vectorI13cmSourceGroupSaIS0_EE3endEv(ptr noundef nonnull align 8 dereferenceable(24) %0) #1 comdat align 2 {
  %2 = alloca %"class.__gnu_cxx::__normal_iterator", align 8
  %3 = alloca ptr, align 8
  store ptr %0, ptr %3, align 8, !tbaa !57
  %4 = load ptr, ptr %3, align 8
  %5 = getelementptr inbounds nuw %"struct.std::_Vector_base.9", ptr %4, i32 0, i32 0
  %6 = getelementptr inbounds nuw %"struct.std::_Vector_base<cmSourceGroup, std::allocator<cmSourceGroup>>::_Vector_impl_data", ptr %5, i32 0, i32 1
  call void @_ZN9__gnu_cxx17__normal_iteratorIP13cmSourceGroupSt6vectorIS1_SaIS1_EEEC2ERKS2_(ptr noundef nonnull align 8 dereferenceable(8) %2, ptr noundef nonnull align 8 dereferenceable(8) %6) #16
  %7 = getelementptr inbounds nuw %"class.__gnu_cxx::__normal_iterator", ptr %2, i32 0, i32 0
  %8 = load ptr, ptr %7, align 8
  ret ptr %8
}

; Function Attrs: mustprogress nounwind uwtable
define linkonce_odr dso_local ptr @_ZNSt6vectorI13cmSourceGroupSaIS0_EE5beginEv(ptr noundef nonnull align 8 dereferenceable(24) %0) #1 comdat align 2 {
  %2 = alloca %"class.__gnu_cxx::__normal_iterator", align 8
  %3 = alloca ptr, align 8
  store ptr %0, ptr %3, align 8, !tbaa !57
  %4 = load ptr, ptr %3, align 8
  %5 = getelementptr inbounds nuw %"struct.std::_Vector_base.9", ptr %4, i32 0, i32 0
  %6 = getelementptr inbounds nuw %"struct.std::_Vector_base<cmSourceGroup, std::allocator<cmSourceGroup>>::_Vector_impl_data", ptr %5, i32 0, i32 0
  call void @_ZN9__gnu_cxx17__normal_iteratorIP13cmSourceGroupSt6vectorIS1_SaIS1_EEEC2ERKS2_(ptr noundef nonnull align 8 dereferenceable(8) %2, ptr noundef nonnull align 8 dereferenceable(8) %6) #16
  %7 = getelementptr inbounds nuw %"class.__gnu_cxx::__normal_iterator", ptr %2, i32 0, i32 0
  %8 = load ptr, ptr %7, align 8
  ret ptr %8
}

; Function Attrs: mustprogress nounwind uwtable
define linkonce_odr dso_local noundef ptr @_ZNKSt10unique_ptrI22cmSourceGroupInternalsSt14default_deleteIS0_EEptEv(ptr noundef nonnull align 8 dereferenceable(8) %0) #1 comdat align 2 {
  %2 = alloca ptr, align 8
  store ptr %0, ptr %2, align 8, !tbaa !30
  %3 = load ptr, ptr %2, align 8
  %4 = call noundef ptr @_ZNKSt10unique_ptrI22cmSourceGroupInternalsSt14default_deleteIS0_EE3getEv(ptr noundef nonnull align 8 dereferenceable(8) %3) #16
  ret ptr %4
}

; Function Attrs: mustprogress nounwind uwtable
define dso_local noundef ptr @_ZN13cmSourceGroup11LookupChildERKNSt7__cxx1112basic_stringIcSt11char_traitsIcESaIcEEE(ptr noundef nonnull align 8 dereferenceable(704) %0, ptr noundef nonnull align 8 dereferenceable(32) %1) #1 align 2 {
  %3 = alloca ptr, align 8
  %4 = alloca ptr, align 8
  %5 = alloca ptr, align 8
  %6 = alloca ptr, align 8
  %7 = alloca %"class.__gnu_cxx::__normal_iterator", align 8
  %8 = alloca %"class.__gnu_cxx::__normal_iterator", align 8
  %9 = alloca i32, align 4
  %10 = alloca ptr, align 8
  store ptr %0, ptr %4, align 8, !tbaa !4
  store ptr %1, ptr %5, align 8, !tbaa !9
  %11 = load ptr, ptr %4, align 8
  call void @llvm.lifetime.start.p0(i64 8, ptr %6) #16
  %12 = getelementptr inbounds nuw %class.cmSourceGroup, ptr %11, i32 0, i32 5
  %13 = call noundef ptr @_ZNKSt10unique_ptrI22cmSourceGroupInternalsSt14default_deleteIS0_EEptEv(ptr noundef nonnull align 8 dereferenceable(8) %12) #16
  %14 = getelementptr inbounds nuw %class.cmSourceGroupInternals, ptr %13, i32 0, i32 0
  store ptr %14, ptr %6, align 8, !tbaa !57
  call void @llvm.lifetime.start.p0(i64 8, ptr %7) #16
  %15 = load ptr, ptr %6, align 8, !tbaa !57
  %16 = call ptr @_ZNSt6vectorI13cmSourceGroupSaIS0_EE5beginEv(ptr noundef nonnull align 8 dereferenceable(24) %15) #16
  %17 = getelementptr inbounds nuw %"class.__gnu_cxx::__normal_iterator", ptr %7, i32 0, i32 0
  store ptr %16, ptr %17, align 8
  call void @llvm.lifetime.start.p0(i64 8, ptr %8) #16
  %18 = load ptr, ptr %6, align 8, !tbaa !57
  %19 = call ptr @_ZNSt6vectorI13cmSourceGroupSaIS0_EE3endEv(ptr noundef nonnull align 8 dereferenceable(24) %18) #16
  %20 = getelementptr inbounds nuw %"class.__gnu_cxx::__normal_iterator", ptr %8, i32 0, i32 0
  store ptr %19, ptr %20, align 8
  br label %21

21:                                               ; preds = %36, %2
  %22 = call noundef zeroext i1 @_ZN9__gnu_cxxneIP13cmSourceGroupSt6vectorIS1_SaIS1_EEEEbRKNS_17__normal_iteratorIT_T0_EESB_(ptr noundef nonnull align 8 dereferenceable(8) %7, ptr noundef nonnull align 8 dereferenceable(8) %8) #16
  br i1 %22, label %24, label %23

23:                                               ; preds = %21
  store i32 2, ptr %9, align 4
  br label %38

24:                                               ; preds = %21
  call void @llvm.lifetime.start.p0(i64 8, ptr %10) #16
  %25 = call noundef nonnull align 8 dereferenceable(704) ptr @_ZNK9__gnu_cxx17__normal_iteratorIP13cmSourceGroupSt6vectorIS1_SaIS1_EEEdeEv(ptr noundef nonnull align 8 dereferenceable(8) %7) #16
  store ptr %25, ptr %10, align 8, !tbaa !4
  %26 = load ptr, ptr %10, align 8, !tbaa !4
  %27 = call noundef nonnull align 8 dereferenceable(32) ptr @_ZNK13cmSourceGroup7GetNameB5cxx11Ev(ptr noundef nonnull align 8 dereferenceable(704) %26)
  %28 = load ptr, ptr %5, align 8, !tbaa !9
  %29 = call noundef zeroext i1 @_ZSteqIcEN9__gnu_cxx11__enable_ifIXsr9__is_charIT_EE7__valueEbE6__typeERKNSt7__cxx1112basic_stringIS2_St11char_traitsIS2_ESaIS2_EEESC_(ptr noundef nonnull align 8 dereferenceable(32) %27, ptr noundef nonnull align 8 dereferenceable(32) %28) #16
  br i1 %29, label %30, label %32

30:                                               ; preds = %24
  %31 = load ptr, ptr %10, align 8, !tbaa !4
  store ptr %31, ptr %3, align 8
  store i32 1, ptr %9, align 4
  br label %33

32:                                               ; preds = %24
  store i32 0, ptr %9, align 4
  br label %33

33:                                               ; preds = %32, %30
  call void @llvm.lifetime.end.p0(i64 8, ptr %10) #16
  %34 = load i32, ptr %9, align 4
  switch i32 %34, label %38 [
    i32 0, label %35
  ]

35:                                               ; preds = %33
  br label %36

36:                                               ; preds = %35
  %37 = call noundef nonnull align 8 dereferenceable(8) ptr @_ZN9__gnu_cxx17__normal_iteratorIP13cmSourceGroupSt6vectorIS1_SaIS1_EEEppEv(ptr noundef nonnull align 8 dereferenceable(8) %7) #16
  br label %21

38:                                               ; preds = %33, %23
  call void @llvm.lifetime.end.p0(i64 8, ptr %8) #16
  call void @llvm.lifetime.end.p0(i64 8, ptr %7) #16
  call void @llvm.lifetime.end.p0(i64 8, ptr %6) #16
  %39 = load i32, ptr %9, align 4
  switch i32 %39, label %43 [
    i32 2, label %40
    i32 1, label %41
  ]

40:                                               ; preds = %38
  store ptr null, ptr %3, align 8
  br label %41

41:                                               ; preds = %40, %38
  %42 = load ptr, ptr %3, align 8
  ret ptr %42

43:                                               ; preds = %38
  unreachable
}